target datalayout = "e-m:e-p270:32:32-p271:32:32-p272:64:64-i64:64-i128:128-f80:128-n8:16:32:64-S128"
target triple = "x86_64-pc-linux-gnu"

%struct._generic_N_Vector = type { ptr, ptr, ptr }
%struct._N_VectorContent_SensWrapper = type { ptr, i32, i32 }

; Function Attrs: nounwind uwtable
define i32 @N_VConstrMask_SensWrapper(ptr noundef %0, ptr noundef %1, ptr noundef %2) #0 {
  %4 = alloca ptr, align 8
  %5 = alloca ptr, align 8
  %6 = alloca ptr, align 8
  %7 = alloca i32, align 4
  %8 = alloca i32, align 4
  %9 = alloca i32, align 4
  store ptr %0, ptr %4, align 8, !tbaa !10
  store ptr %1, ptr %5, align 8, !tbaa !10
  store ptr %2, ptr %6, align 8, !tbaa !10
  call void @llvm.lifetime.start.p0(i64 4, ptr %7) #5
  call void @llvm.lifetime.start.p0(i64 4, ptr %8) #5
  call void @llvm.lifetime.start.p0(i64 4, ptr %9) #5
  store i32 1, ptr %8, align 4, !tbaa !3
  store i32 0, ptr %7, align 4, !tbaa !3
  br label %10

10:                                               ; preds = %43, %3
  %11 = load i32, ptr %7, align 4, !tbaa !3
  %12 = load ptr, ptr %5, align 8, !tbaa !10
  %13 = getelementptr inbounds nuw %struct._generic_N_Vector, ptr %12, i32 0, i32 0
  %14 = load ptr, ptr %13, align 8, !tbaa !45
  %15 = getelementptr inbounds nuw %struct._N_VectorContent_SensWrapper, ptr %14, i32 0, i32 1
  %16 = load i32, ptr %15, align 8, !tbaa !40
  %17 = icmp slt i32 %11, %16
  br i1 %17, label %18, label %46

18:                                               ; preds = %10
  %19 = load ptr, ptr %4, align 8, !tbaa !10
  %20 = load ptr, ptr %5, align 8, !tbaa !10
  %21 = getelementptr inbounds nuw %struct._generic_N_Vector, ptr %20, i32 0, i32 0
  %22 = load ptr, ptr %21, align 8, !tbaa !45
  %23 = getelementptr inbounds nuw %struct._N_VectorContent_SensWrapper, ptr %22, i32 0, i32 0
  %24 = load ptr, ptr %23, align 8, !tbaa !44
  %25 = load i32, ptr %7, align 4, !tbaa !3
  %26 = sext i32 %25 to i64
  %27 = getelementptr inbounds ptr, ptr %24, i64 %26
  %28 = load ptr, ptr %27, align 8, !tbaa !10
  %29 = load ptr, ptr %6, align 8, !tbaa !10
  %30 = getelementptr inbounds nuw %struct._generic_N_Vector, ptr %29, i32 0, i32 0
  %31 = load ptr, ptr %30, align 8, !tbaa !45
  %32 = getelementptr inbounds nuw %struct._N_VectorContent_SensWrapper, ptr %31, i32 0, i32 0
  %33 = load ptr, ptr %32, align 8, !tbaa !44
  %34 = load i32, ptr %7, align 4, !tbaa !3
  %35 = sext i32 %34 to i64
  %36 = getelementptr inbounds ptr, ptr %33, i64 %35
  %37 = load ptr, ptr %36, align 8, !tbaa !10
  %38 = call i32 @N_VConstrMask(ptr noundef %19, ptr noundef %28, ptr noundef %37)
  store i32 %38, ptr %9, align 4, !tbaa !3
  %39 = load i32, ptr %9, align 4, !tbaa !3
  %40 = icmp ne i32 %39, 1
  br i1 %40, label %41, label %42

41:                                               ; preds = %18
  store i32 0, ptr %8, align 4, !tbaa !3
  br label %42

42:                                               ; preds = %41, %18
  br label %43

43:                                               ; preds = %42
  %44 = load i32, ptr %7, align 4, !tbaa !3
  %45 = add nsw i32 %44, 1
  store i32 %45, ptr %7, align 4, !tbaa !3
  br label %10

46:                                               ; preds = %10
  %47 = load i32, ptr %8, align 4, !tbaa !3
  call void @llvm.lifetime.end.p0(i64 4, ptr %9) #5
  call void @llvm.lifetime.end.p0(i64 4, ptr %8) #5
  call void @llvm.lifetime.end.p0(i64 4, ptr %7) #5
  ret i32 %47
}