; Function Attrs: nounwind uwtable
define range(i32 0, 2) i32 @N_VConstrMask_SensWrapper(ptr noundef %0, ptr noundef readonly captures(none) %1, ptr noundef readonly captures(none) %2) #0 {
  %4 = load ptr, ptr %1, align 8, !tbaa !39
  %5 = getelementptr inbounds nuw i8, ptr %4, i64 8
  %6 = load i32, ptr %5, align 8, !tbaa !33
  %7 = icmp sgt i32 %6, 0
  br i1 %7, label %.lr.ph, label %._crit_edge

.lr.ph:                                           ; preds = %3, %.lr.ph
  %indvars.iv = phi i64 [ %indvars.iv.next, %.lr.ph ], [ 0, %3 ]
  %8 = phi ptr [ %17, %.lr.ph ], [ %4, %3 ]
  %.0910 = phi i32 [ %spec.select, %.lr.ph ], [ 1, %3 ]
  %9 = load ptr, ptr %8, align 8, !tbaa !38
  %10 = getelementptr inbounds nuw ptr, ptr %9, i64 %indvars.iv
  %11 = load ptr, ptr %10, align 8, !tbaa !40
  %12 = load ptr, ptr %2, align 8, !tbaa !39
  %13 = load ptr, ptr %12, align 8, !tbaa !38
  %14 = getelementptr inbounds nuw ptr, ptr %13, i64 %indvars.iv
  %15 = load ptr, ptr %14, align 8, !tbaa !40
  %16 = tail call i32 @N_VConstrMask(ptr noundef %0, ptr noundef %11, ptr noundef %15) #7
  %.not = icmp eq i32 %16, 1
  %spec.select = select i1 %.not, i32 %.0910, i32 0
  %indvars.iv.next = add nuw nsw i64 %indvars.iv, 1
  %17 = load ptr, ptr %1, align 8, !tbaa !39
  %18 = getelementptr inbounds nuw i8, ptr %17, i64 8
  %19 = load i32, ptr %18, align 8, !tbaa !33
  %20 = sext i32 %19 to i64
  %21 = icmp slt i64 %indvars.iv.next, %20
  br i1 %21, label %.lr.ph, label %._crit_edge

._crit_edge:                                      ; preds = %.lr.ph, %3
  %.09.lcssa = phi i32 [ 1, %3 ], [ %spec.select, %.lr.ph ]
  ret i32 %.09.lcssa
}